#include <math.h>
#include <stdio.h>
#include <stdlib.h>
#include <string.h>
#include <iostream>
using namespace std;

int main()
{
	int A, B, C, D, E;
					E=15-A-B-C-D;
					A=5;B=2;C=1;D=3;E=4;

	cout << A <<" " << B << " " <<  C << " " << D << " " << E << endl;
	return 0;
}